; Function Attrs: mustprogress uwtable
define void @_ZN18duckdb_fastpforlib8internal11__fastpack6EPKmPj(ptr noalias noundef %0, ptr noalias noundef initializes((0, 12)) %1) local_unnamed_addr #5 {
  tail call void @llvm.experimental.noalias.scope.decl(metadata !12932)
  tail call void @llvm.experimental.noalias.scope.decl(metadata !12935)
  %3 = load i64, ptr %0, align 8, !tbaa !9, !alias.scope !12932, !noalias !12935
  %4 = trunc i64 %3 to i32
  %5 = and i32 %4, 63
  tail call void @llvm.experimental.noalias.scope.decl(metadata !12937)
  tail call void @llvm.experimental.noalias.scope.decl(metadata !12940)
  %6 = getelementptr inbounds nuw i8, ptr %0, i64 8
  %7 = load i64, ptr %6, align 8, !tbaa !9, !alias.scope !12942, !noalias !12943
  %.tr.i.i.i = trunc i64 %7 to i32
  %8 = shl i32 %.tr.i.i.i, 6
  %9 = and i32 %8, 4032
  %10 = or disjoint i32 %5, %9
  tail call void @llvm.experimental.noalias.scope.decl(metadata !12944)
  tail call void @llvm.experimental.noalias.scope.decl(metadata !12947)
  %11 = getelementptr inbounds nuw i8, ptr %0, i64 16
  %12 = load i64, ptr %11, align 8, !tbaa !9, !alias.scope !12949, !noalias !12950
  %.tr.i.i.i.i = trunc i64 %12 to i32
  %13 = shl i32 %.tr.i.i.i.i, 12
  %14 = and i32 %13, 258048
  tail call void @llvm.experimental.noalias.scope.decl(metadata !12951)
  tail call void @llvm.experimental.noalias.scope.decl(metadata !12954)
  %15 = getelementptr inbounds nuw i8, ptr %0, i64 24
  %16 = load i64, ptr %15, align 8, !tbaa !9, !alias.scope !12956, !noalias !12957
  %.tr.i.i.i.i.i = trunc i64 %16 to i32
  %17 = shl i32 %.tr.i.i.i.i.i, 18
  %18 = and i32 %17, 16515072
  tail call void @llvm.experimental.noalias.scope.decl(metadata !12958)
  tail call void @llvm.experimental.noalias.scope.decl(metadata !12961)
  %19 = getelementptr inbounds nuw i8, ptr %0, i64 32
  %20 = load i64, ptr %19, align 8, !tbaa !9, !alias.scope !12963, !noalias !12964
  %.tr.i.i.i.i.i.i = trunc i64 %20 to i32
  %21 = shl i32 %.tr.i.i.i.i.i.i, 24
  %22 = and i32 %21, 1056964608
  tail call void @llvm.experimental.noalias.scope.decl(metadata !12965)
  tail call void @llvm.experimental.noalias.scope.decl(metadata !12968)
  %23 = getelementptr inbounds nuw i8, ptr %0, i64 40
  %24 = load i64, ptr %23, align 8, !tbaa !9, !alias.scope !12970, !noalias !12971
  %.tr.i.i.i.i.i.i.i = trunc i64 %24 to i32
  %25 = shl i32 %.tr.i.i.i.i.i.i.i, 30
  %26 = or disjoint i32 %25, %22
  %27 = or disjoint i32 %26, %18
  %28 = or disjoint i32 %27, %14
  %29 = or disjoint i32 %28, %10
  store i32 %29, ptr %1, align 4, !tbaa !7, !alias.scope !12971, !noalias !12970
  %30 = getelementptr inbounds nuw i8, ptr %1, i64 4
  %31 = lshr i32 %.tr.i.i.i.i.i.i.i, 2
  %32 = and i32 %31, 15
  tail call void @llvm.experimental.noalias.scope.decl(metadata !12972)
  tail call void @llvm.experimental.noalias.scope.decl(metadata !12975)
  %33 = getelementptr inbounds nuw i8, ptr %0, i64 48
  %34 = load i64, ptr %33, align 8, !tbaa !9, !alias.scope !12977, !noalias !12978
  %.tr.i.i.i.i.i.i.i.i = trunc i64 %34 to i32
  %35 = shl i32 %.tr.i.i.i.i.i.i.i.i, 4
  %36 = and i32 %35, 1008
  %37 = or disjoint i32 %32, %36
  tail call void @llvm.experimental.noalias.scope.decl(metadata !12979)
  tail call void @llvm.experimental.noalias.scope.decl(metadata !12982)
  %38 = getelementptr inbounds nuw i8, ptr %0, i64 56
  %39 = load i64, ptr %38, align 8, !tbaa !9, !alias.scope !12984, !noalias !12985
  %.tr.i.i.i.i.i.i.i.i.i = trunc i64 %39 to i32
  %40 = shl i32 %.tr.i.i.i.i.i.i.i.i.i, 10
  %41 = and i32 %40, 64512
  tail call void @llvm.experimental.noalias.scope.decl(metadata !12986)
  tail call void @llvm.experimental.noalias.scope.decl(metadata !12989)
  %42 = getelementptr inbounds nuw i8, ptr %0, i64 64
  %43 = load i64, ptr %42, align 8, !tbaa !9, !alias.scope !12991, !noalias !12992
  %.tr.i.i.i.i.i.i.i.i.i.i = trunc i64 %43 to i32
  %44 = shl i32 %.tr.i.i.i.i.i.i.i.i.i.i, 16
  %45 = and i32 %44, 4128768
  tail call void @llvm.experimental.noalias.scope.decl(metadata !12993)
  tail call void @llvm.experimental.noalias.scope.decl(metadata !12996)
  %46 = getelementptr inbounds nuw i8, ptr %0, i64 72
  %47 = load i64, ptr %46, align 8, !tbaa !9, !alias.scope !12998, !noalias !12999
  %.tr.i.i.i.i.i.i.i.i.i.i.i = trunc i64 %47 to i32
  %48 = shl i32 %.tr.i.i.i.i.i.i.i.i.i.i.i, 22
  %49 = and i32 %48, 264241152
  tail call void @llvm.experimental.noalias.scope.decl(metadata !13000)
  tail call void @llvm.experimental.noalias.scope.decl(metadata !13003)
  %50 = getelementptr inbounds nuw i8, ptr %0, i64 80
  %51 = load i64, ptr %50, align 8, !tbaa !9, !alias.scope !13005, !noalias !13006
  %.tr.i.i.i.i.i.i.i.i.i.i.i.i = trunc i64 %51 to i32
  %52 = shl i32 %.tr.i.i.i.i.i.i.i.i.i.i.i.i, 28
  %53 = or disjoint i32 %52, %49
  %54 = or disjoint i32 %53, %45
  %55 = or disjoint i32 %54, %41
  %56 = or disjoint i32 %55, %37
  store i32 %56, ptr %30, align 4, !tbaa !7, !alias.scope !13006, !noalias !13005
  %57 = getelementptr inbounds nuw i8, ptr %1, i64 8
  %58 = lshr i32 %.tr.i.i.i.i.i.i.i.i.i.i.i.i, 4
  %59 = and i32 %58, 3
  tail call void @llvm.experimental.noalias.scope.decl(metadata !13007)
  tail call void @llvm.experimental.noalias.scope.decl(metadata !13010)
  %60 = getelementptr inbounds nuw i8, ptr %0, i64 88
  %61 = load i64, ptr %60, align 8, !tbaa !9, !alias.scope !13012, !noalias !13013
  %.tr.i.i.i.i.i.i.i.i.i.i.i.i.i = trunc i64 %61 to i32
  %62 = shl i32 %.tr.i.i.i.i.i.i.i.i.i.i.i.i.i, 2
  %63 = and i32 %62, 252
  %64 = or disjoint i32 %63, %59
  store i32 %64, ptr %57, align 4, !tbaa !7, !alias.scope !13014, !noalias !13012
  tail call void @_ZN18duckdb_fastpforlib8internal8UnrollerILt6ELt12EE4PackEPKmPj(ptr noundef nonnull %0, ptr noundef nonnull %57)
  ret void
}